target datalayout = "e-m:e-p270:32:32-p271:32:32-p272:64:64-i64:64-i128:128-f80:128-n8:16:32:64-S128"
target triple = "x86_64-pc-linux-gnu"

%struct.lean_object = type { i32, i32 }
%struct.lean_ctor_object = type { %struct.lean_object, [0 x ptr] }

; Function Attrs: inlinehint nounwind uwtable
define internal ptr @lean_to_ctor(ptr noundef %0) #4 {
  %2 = alloca ptr, align 8
  store ptr %0, ptr %2, align 8, !tbaa !4
  %3 = load ptr, ptr %2, align 8, !tbaa !4
  ret ptr %3
}

; Function Attrs: inlinehint nounwind uwtable
define internal ptr @lean_ctor_obj_cptr(ptr noundef %0) #4 {
  %2 = alloca ptr, align 8
  store ptr %0, ptr %2, align 8, !tbaa !4
  %3 = load ptr, ptr %2, align 8, !tbaa !4
  %4 = call ptr @lean_to_ctor(ptr noundef %3)
  %5 = getelementptr inbounds nuw %struct.lean_ctor_object, ptr %4, i32 0, i32 1
  %6 = getelementptr inbounds [0 x ptr], ptr %5, i64 0, i64 0
  ret ptr %6
}

; Function Attrs: inlinehint nounwind uwtable
define internal zeroext i8 @lean_ptr_tag(ptr noundef %0) #4 {
  %2 = alloca ptr, align 8
  store ptr %0, ptr %2, align 8, !tbaa !4
  %3 = load ptr, ptr %2, align 8, !tbaa !4
  %4 = getelementptr inbounds nuw %struct.lean_object, ptr %3, i32 0, i32 1
  %5 = load i32, ptr %4, align 4
  %6 = lshr i32 %5, 24
  %7 = trunc i32 %6 to i8
  ret i8 %7
}

; Function Attrs: inlinehint nounwind uwtable
define internal i64 @lean_unbox(ptr noundef %0) #4 {
  %2 = alloca ptr, align 8
  store ptr %0, ptr %2, align 8, !tbaa !4
  %3 = load ptr, ptr %2, align 8, !tbaa !4
  %4 = ptrtoint ptr %3 to i64
  %5 = lshr i64 %4, 1
  ret i64 %5
}

; Function Attrs: alwaysinline nounwind uwtable
define internal void @lean_dec_ref(ptr noundef %0) #3 {
  %2 = alloca ptr, align 8
  store ptr %0, ptr %2, align 8, !tbaa !4
  %3 = load ptr, ptr %2, align 8, !tbaa !4
  %4 = getelementptr inbounds nuw %struct.lean_object, ptr %3, i32 0, i32 0
  %5 = load i32, ptr %4, align 4, !tbaa !15
  %6 = icmp sgt i32 %5, 1
  %7 = zext i1 %6 to i32
  %8 = sext i32 %7 to i64
  %9 = call i64 @llvm.expect.i64(i64 %8, i64 1)
  %10 = icmp ne i64 %9, 0
  br i1 %10, label %11, label %16

11:                                               ; preds = %1
  %12 = load ptr, ptr %2, align 8, !tbaa !4
  %13 = getelementptr inbounds nuw %struct.lean_object, ptr %12, i32 0, i32 0
  %14 = load i32, ptr %13, align 4, !tbaa !15
  %15 = add i32 %14, -1
  store i32 %15, ptr %13, align 4, !tbaa !15
  br label %24

16:                                               ; preds = %1
  %17 = load ptr, ptr %2, align 8, !tbaa !4
  %18 = getelementptr inbounds nuw %struct.lean_object, ptr %17, i32 0, i32 0
  %19 = load i32, ptr %18, align 4, !tbaa !15
  %20 = icmp ne i32 %19, 0
  br i1 %20, label %21, label %23

21:                                               ; preds = %16
  %22 = load ptr, ptr %2, align 8, !tbaa !4
  call void @lean_dec_ref_cold(ptr noundef %22)
  br label %23

23:                                               ; preds = %21, %16
  br label %24

24:                                               ; preds = %23, %11
  ret void
}

; Function Attrs: alwaysinline nounwind uwtable
define internal zeroext i1 @lean_is_scalar(ptr noundef %0) #3 {
  %2 = alloca ptr, align 8
  store ptr %0, ptr %2, align 8, !tbaa !4
  %3 = load ptr, ptr %2, align 8, !tbaa !4
  %4 = ptrtoint ptr %3 to i64
  %5 = and i64 %4, 1
  %6 = icmp eq i64 %5, 1
  ret i1 %6
}

; Function Attrs: inlinehint nounwind uwtable
define internal ptr @lean_ctor_get(ptr noundef %0, i32 noundef %1) #4 {
  %3 = alloca ptr, align 8
  %4 = alloca i32, align 4
  store ptr %0, ptr %3, align 8, !tbaa !4
  store i32 %1, ptr %4, align 4, !tbaa !11
  %5 = load ptr, ptr %3, align 8, !tbaa !4
  %6 = call ptr @lean_ctor_obj_cptr(ptr noundef %5)
  %7 = load i32, ptr %4, align 4, !tbaa !11
  %8 = zext i32 %7 to i64
  %9 = getelementptr inbounds nuw ptr, ptr %6, i64 %8
  %10 = load ptr, ptr %9, align 8, !tbaa !4
  ret ptr %10
}

; Function Attrs: inlinehint nounwind uwtable
define internal i32 @lean_obj_tag(ptr noundef %0) #4 {
  %2 = alloca i32, align 4
  %3 = alloca ptr, align 8
  store ptr %0, ptr %3, align 8, !tbaa !4
  %4 = load ptr, ptr %3, align 8, !tbaa !4
  %5 = call zeroext i1 @lean_is_scalar(ptr noundef %4)
  br i1 %5, label %6, label %10

6:                                                ; preds = %1
  %7 = load ptr, ptr %3, align 8, !tbaa !4
  %8 = call i64 @lean_unbox(ptr noundef %7)
  %9 = trunc i64 %8 to i32
  store i32 %9, ptr %2, align 4
  br label %14

10:                                               ; preds = %1
  %11 = load ptr, ptr %3, align 8, !tbaa !4
  %12 = call zeroext i8 @lean_ptr_tag(ptr noundef %11)
  %13 = zext i8 %12 to i32
  store i32 %13, ptr %2, align 4
  br label %14

14:                                               ; preds = %10, %6
  %15 = load i32, ptr %2, align 4
  ret i32 %15
}

; Function Attrs: inlinehint nounwind uwtable
define internal ptr @lean_box(i64 noundef %0) #4 {
  %2 = alloca i64, align 8
  store i64 %0, ptr %2, align 8, !tbaa !9
  %3 = load i64, ptr %2, align 8, !tbaa !9
  %4 = shl i64 %3, 1
  %5 = or i64 %4, 1
  %6 = inttoptr i64 %5 to ptr
  ret ptr %6
}

; Function Attrs: alwaysinline nounwind uwtable
define internal void @lean_dec(ptr noundef %0) #3 {
  %2 = alloca ptr, align 8
  store ptr %0, ptr %2, align 8, !tbaa !4
  %3 = load ptr, ptr %2, align 8, !tbaa !4
  %4 = call zeroext i1 @lean_is_scalar(ptr noundef %3)
  br i1 %4, label %7, label %5

5:                                                ; preds = %1
  %6 = load ptr, ptr %2, align 8, !tbaa !4
  call void @lean_dec_ref(ptr noundef %6)
  br label %7

7:                                                ; preds = %5, %1
  ret void
}

; Function Attrs: nounwind uwtable
define zeroext i8 @l_Lean_AssocList_contains___at_Lean_Meta_FVarSubst_contains___spec__1(ptr noundef %0, ptr noundef %1) #0 {
  %3 = alloca i8, align 1
  %4 = alloca ptr, align 8
  %5 = alloca ptr, align 8
  %6 = alloca i8, align 1
  %7 = alloca ptr, align 8
  %8 = alloca ptr, align 8
  %9 = alloca i8, align 1
  %10 = alloca i32, align 4
  %11 = alloca i8, align 1
  store ptr %0, ptr %4, align 8, !tbaa !4
  store ptr %1, ptr %5, align 8, !tbaa !4
  br label %12

12:                                               ; preds = %33, %2
  %13 = load ptr, ptr %5, align 8, !tbaa !4
  %14 = call i32 @lean_obj_tag(ptr noundef %13)
  %15 = icmp eq i32 %14, 0
  br i1 %15, label %16, label %18

16:                                               ; preds = %12
  call void @llvm.lifetime.start.p0(i64 1, ptr %6) #7
  store i8 0, ptr %6, align 1, !tbaa !8
  %17 = load i8, ptr %6, align 1, !tbaa !8
  store i8 %17, ptr %3, align 1
  call void @llvm.lifetime.end.p0(i64 1, ptr %6) #7
  br label %35

18:                                               ; preds = %12
  call void @llvm.lifetime.start.p0(i64 8, ptr %7) #7
  call void @llvm.lifetime.start.p0(i64 8, ptr %8) #7
  call void @llvm.lifetime.start.p0(i64 1, ptr %9) #7
  %19 = load ptr, ptr %5, align 8, !tbaa !4
  %20 = call ptr @lean_ctor_get(ptr noundef %19, i32 noundef 0)
  store ptr %20, ptr %7, align 8, !tbaa !4
  %21 = load ptr, ptr %5, align 8, !tbaa !4
  %22 = call ptr @lean_ctor_get(ptr noundef %21, i32 noundef 2)
  store ptr %22, ptr %8, align 8, !tbaa !4
  %23 = load ptr, ptr %7, align 8, !tbaa !4
  %24 = load ptr, ptr %4, align 8, !tbaa !4
  %25 = call zeroext i8 @lean_name_eq(ptr noundef %23, ptr noundef %24)
  store i8 %25, ptr %9, align 1, !tbaa !8
  %26 = load i8, ptr %9, align 1, !tbaa !8
  %27 = zext i8 %26 to i32
  %28 = icmp eq i32 %27, 0
  br i1 %28, label %29, label %31

29:                                               ; preds = %18
  %30 = load ptr, ptr %8, align 8, !tbaa !4
  store ptr %30, ptr %5, align 8, !tbaa !4
  store i32 2, ptr %10, align 4
  br label %33

31:                                               ; preds = %18
  call void @llvm.lifetime.start.p0(i64 1, ptr %11) #7
  store i8 1, ptr %11, align 1, !tbaa !8
  %32 = load i8, ptr %11, align 1, !tbaa !8
  store i8 %32, ptr %3, align 1
  store i32 1, ptr %10, align 4
  call void @llvm.lifetime.end.p0(i64 1, ptr %11) #7
  br label %33

33:                                               ; preds = %31, %29
  call void @llvm.lifetime.end.p0(i64 1, ptr %9) #7
  call void @llvm.lifetime.end.p0(i64 8, ptr %8) #7
  call void @llvm.lifetime.end.p0(i64 8, ptr %7) #7
  %34 = load i32, ptr %10, align 4
  switch i32 %34, label %37 [
    i32 2, label %12
    i32 1, label %35
  ]

35:                                               ; preds = %33, %16
  %36 = load i8, ptr %3, align 1
  ret i8 %36

37:                                               ; preds = %33
  unreachable
}

; Function Attrs: nounwind uwtable
define ptr @l_Lean_AssocList_contains___at_Lean_Meta_FVarSubst_contains___spec__1___boxed(ptr noundef %0, ptr noundef %1) #0 {
  %3 = alloca ptr, align 8
  %4 = alloca ptr, align 8
  %5 = alloca i8, align 1
  %6 = alloca ptr, align 8
  store ptr %0, ptr %3, align 8, !tbaa !4
  store ptr %1, ptr %4, align 8, !tbaa !4
  br label %7

7:                                                ; preds = %2
  call void @llvm.lifetime.start.p0(i64 1, ptr %5) #7
  call void @llvm.lifetime.start.p0(i64 8, ptr %6) #7
  %8 = load ptr, ptr %3, align 8, !tbaa !4
  %9 = load ptr, ptr %4, align 8, !tbaa !4
  %10 = call zeroext i8 @l_Lean_AssocList_contains___at_Lean_Meta_FVarSubst_contains___spec__1(ptr noundef %8, ptr noundef %9)
  store i8 %10, ptr %5, align 1, !tbaa !8
  %11 = load ptr, ptr %4, align 8, !tbaa !4
  call void @lean_dec(ptr noundef %11)
  %12 = load ptr, ptr %3, align 8, !tbaa !4
  call void @lean_dec(ptr noundef %12)
  %13 = load i8, ptr %5, align 1, !tbaa !8
  %14 = zext i8 %13 to i64
  %15 = call ptr @lean_box(i64 noundef %14)
  store ptr %15, ptr %6, align 8, !tbaa !4
  %16 = load ptr, ptr %6, align 8, !tbaa !4
  call void @llvm.lifetime.end.p0(i64 8, ptr %6) #7
  call void @llvm.lifetime.end.p0(i64 1, ptr %5) #7
  ret ptr %16
}